; ModuleID = 'source-C-CXX/14/484.c'
source_filename = "source-C-CXX/14/484.c"
target datalayout = "e-m:e-p270:32:32-p271:32:32-p272:64:64-i64:64-f80:128-n8:16:32:64-S128"
target triple = "x86_64-pc-linux-gnu"

@.str = private unnamed_addr constant [3 x i8] c"%d\00", align 1
@.str.1 = private unnamed_addr constant [4 x i8] c"%d\0A\00", align 1

; Function Attrs: nofree nounwind sspstrong uwtable
define dso_local i32 @main() local_unnamed_addr #0 {
  %1 = alloca [100 x [100 x i32]], align 16
  %2 = alloca i32, align 4
  %3 = bitcast [100 x [100 x i32]]* %1 to i8*
  call void @llvm.lifetime.start.p0i8(i64 40000, i8* nonnull %3) #3
  %4 = bitcast i32* %2 to i8*
  call void @llvm.lifetime.start.p0i8(i64 4, i8* nonnull %4) #3
  %5 = call i32 (i8*, ...) @__isoc99_scanf(i8* getelementptr inbounds ([3 x i8], [3 x i8]* @.str, i64 0, i64 0), i32* nonnull %2)
  %6 = load i32, i32* %2, align 4, !tbaa !5
  %7 = icmp sgt i32 %6, 0
  br i1 %7, label %8, label %54

8:                                                ; preds = %0, %25
  %9 = phi i32 [ %26, %25 ], [ %6, %0 ]
  %10 = phi i64 [ %28, %25 ], [ 0, %0 ]
  %11 = icmp sgt i32 %9, 0
  br i1 %11, label %17, label %25

12:                                               ; preds = %25
  %13 = icmp sgt i32 %26, 0
  br i1 %13, label %14, label %54

14:                                               ; preds = %12
  %15 = zext i32 %26 to i64
  %16 = zext i32 %26 to i64
  br label %30

17:                                               ; preds = %8, %17
  %18 = phi i64 [ %21, %17 ], [ 0, %8 ]
  %19 = getelementptr inbounds [100 x [100 x i32]], [100 x [100 x i32]]* %1, i64 0, i64 %10, i64 %18
  %20 = call i32 (i8*, ...) @__isoc99_scanf(i8* getelementptr inbounds ([3 x i8], [3 x i8]* @.str, i64 0, i64 0), i32* nonnull %19)
  %21 = add nuw nsw i64 %18, 1
  %22 = load i32, i32* %2, align 4, !tbaa !5
  %23 = sext i32 %22 to i64
  %24 = icmp slt i64 %21, %23
  br i1 %24, label %17, label %25, !llvm.loop !9

25:                                               ; preds = %17, %8
  %26 = phi i32 [ %9, %8 ], [ %22, %17 ]
  %27 = sext i32 %26 to i64
  %28 = add nuw nsw i64 %10, 1
  %29 = icmp slt i64 %28, %27
  br i1 %29, label %8, label %12, !llvm.loop !11

30:                                               ; preds = %14, %51
  %31 = phi i64 [ 0, %14 ], [ %52, %51 ]
  %32 = phi i32 [ 0, %14 ], [ %43, %51 ]
  br label %33

33:                                               ; preds = %33, %30
  %34 = phi i64 [ %40, %33 ], [ 0, %30 ]
  %35 = getelementptr inbounds [100 x [100 x i32]], [100 x [100 x i32]]* %1, i64 0, i64 %34, i64 %31
  %36 = load i32, i32* %35, align 4, !tbaa !5
  %37 = icmp ne i32 %36, 0
  %38 = icmp ult i64 %34, %15
  %39 = select i1 %37, i1 %38, i1 false
  %40 = add nuw nsw i64 %34, 1
  br i1 %39, label %33, label %41, !llvm.loop !13

41:                                               ; preds = %33, %41
  %42 = phi i64 [ %44, %41 ], [ %34, %33 ]
  %43 = phi i32 [ %50, %41 ], [ %32, %33 ]
  %44 = add nuw nsw i64 %42, 1
  %45 = getelementptr inbounds [100 x [100 x i32]], [100 x [100 x i32]]* %1, i64 0, i64 %44, i64 %31
  %46 = load i32, i32* %45, align 4, !tbaa !5
  %47 = icmp ne i32 %46, 0
  %48 = icmp ult i64 %44, %15
  %49 = select i1 %47, i1 %48, i1 false
  %50 = add nsw i32 %43, 1
  br i1 %49, label %41, label %51, !llvm.loop !14

51:                                               ; preds = %41
  %52 = add nuw nsw i64 %31, 1
  %53 = icmp eq i64 %52, %16
  br i1 %53, label %54, label %30, !llvm.loop !15

54:                                               ; preds = %51, %0, %12
  %55 = phi i32 [ 0, %12 ], [ 0, %0 ], [ %43, %51 ]
  %56 = call i32 (i8*, ...) @printf(i8* nonnull dereferenceable(1) getelementptr inbounds ([4 x i8], [4 x i8]* @.str.1, i64 0, i64 0), i32 %55)
  call void @llvm.lifetime.end.p0i8(i64 4, i8* nonnull %4) #3
  call void @llvm.lifetime.end.p0i8(i64 40000, i8* nonnull %3) #3
  ret i32 0
}

; Function Attrs: argmemonly mustprogress nofree nosync nounwind willreturn
declare void @llvm.lifetime.start.p0i8(i64 immarg, i8* nocapture) #1

; Function Attrs: nofree nounwind
declare noundef i32 @__isoc99_scanf(i8* nocapture noundef readonly, ...) local_unnamed_addr #2

; Function Attrs: nofree nounwind
declare noundef i32 @printf(i8* nocapture noundef readonly, ...) local_unnamed_addr #2

; Function Attrs: argmemonly mustprogress nofree nosync nounwind willreturn
declare void @llvm.lifetime.end.p0i8(i64 immarg, i8* nocapture) #1


!llvm.module.flags = !{!0, !1, !2, !3}
!llvm.ident = !{!4}

!0 = !{i32 1, !"wchar_size", i32 4}
!1 = !{i32 7, !"PIC Level", i32 2}
!2 = !{i32 7, !"PIE Level", i32 2}
!3 = !{i32 7, !"uwtable", i32 1}
!4 = !{!"clang version 13.0.0"}
!5 = !{!6, !6, i64 0}
!6 = !{!"int", !7, i64 0}
!7 = !{!"omnipotent char", !8, i64 0}
!8 = !{!"Simple C/C++ TBAA"}
!9 = distinct !{!9, !10}
!10 = !{!"llvm.loop.mustprogress"}
!11 = distinct !{!11, !10, !12}
!12 = !{!"llvm.loop.unswitch.partial.disable"}
!13 = distinct !{!13, !10}
!14 = distinct !{!14, !10}
!15 = distinct !{!15, !10}
